target datalayout = "e-m:e-p270:32:32-p271:32:32-p272:64:64-i64:64-i128:128-f80:128-n8:16:32:64-S128"
target triple = "x86_64-pc-linux-gnu"

%struct.UCaseContext = type { ptr, i32, i32, i32, i32, i32, i8, i8, i8, i8 }

; Function Attrs: mustprogress uwtable
define internal void @_ZL28ucasemap_internalUTF8ToLowerijPN6icu_7713BreakIteratorEPKhiRNS_8ByteSinkEPNS_5EditsER10UErrorCode(i32 noundef %0, i32 noundef %1, ptr noundef %2, ptr noundef %3, i32 noundef %4, ptr noundef nonnull align 8 dereferenceable(8) %5, ptr noundef %6, ptr noundef nonnull align 4 dereferenceable(4) %7) #1 {
  %9 = alloca i32, align 4
  %10 = alloca i32, align 4
  %11 = alloca ptr, align 8
  %12 = alloca ptr, align 8
  %13 = alloca i32, align 4
  %14 = alloca ptr, align 8
  %15 = alloca ptr, align 8
  %16 = alloca ptr, align 8
  %17 = alloca %struct.UCaseContext, align 8
  store i32 %0, ptr %9, align 4, !tbaa !14
  store i32 %1, ptr %10, align 4, !tbaa !14
  store ptr %2, ptr %11, align 8, !tbaa !33
  store ptr %3, ptr %12, align 8, !tbaa !17
  store i32 %4, ptr %13, align 4, !tbaa !14
  store ptr %5, ptr %14, align 8, !tbaa !34
  store ptr %6, ptr %15, align 8, !tbaa !36
  store ptr %7, ptr %16, align 8, !tbaa !22
  call void @llvm.lifetime.start.p0(i64 32, ptr %17) #12
  call void @llvm.memset.p0.i64(ptr align 8 %17, i8 0, i64 32, i1 false)
  %18 = load ptr, ptr %12, align 8, !tbaa !17
  %19 = getelementptr inbounds nuw %struct.UCaseContext, ptr %17, i32 0, i32 0
  store ptr %18, ptr %19, align 8, !tbaa !38
  %20 = load i32, ptr %13, align 4, !tbaa !14
  %21 = getelementptr inbounds nuw %struct.UCaseContext, ptr %17, i32 0, i32 3
  store i32 %20, ptr %21, align 8, !tbaa !40
  %22 = load i32, ptr %9, align 4, !tbaa !14
  %23 = load i32, ptr %10, align 4, !tbaa !14
  %24 = load ptr, ptr %12, align 8, !tbaa !17
  %25 = load i32, ptr %13, align 4, !tbaa !14
  %26 = load ptr, ptr %14, align 8, !tbaa !34
  %27 = load ptr, ptr %15, align 8, !tbaa !36
  %28 = load ptr, ptr %16, align 8, !tbaa !22
  call void @_ZN12_GLOBAL__N_17toLowerEijPKhP12UCaseContextiiRN6icu_778ByteSinkEPNS4_5EditsER10UErrorCode(i32 noundef %22, i32 noundef %23, ptr noundef %24, ptr noundef %17, i32 noundef 0, i32 noundef %25, ptr noundef nonnull align 8 dereferenceable(8) %26, ptr noundef %27, ptr noundef nonnull align 4 dereferenceable(4) %28)
  call void @llvm.lifetime.end.p0(i64 32, ptr %17) #12
  ret void
}