; Function Attrs: mustprogress uwtable
define internal void @_ZL28ucasemap_internalUTF8ToLowerijPN6icu_7713BreakIteratorEPKhiRNS_8ByteSinkEPNS_5EditsER10UErrorCode(i32 noundef %0, i32 noundef %1, ptr readnone captures(none) %2, ptr noundef %3, i32 noundef %4, ptr noundef nonnull align 8 dereferenceable(8) %5, ptr noundef %6, ptr noundef nonnull align 4 dereferenceable(4) %7) #1 {
  %9 = alloca %struct.UCaseContext, align 8
  call void @llvm.lifetime.start.p0(i64 32, ptr nonnull %9) #17
  %10 = getelementptr inbounds nuw i8, ptr %9, i64 8
  call void @llvm.memset.p0.i64(ptr noundef nonnull align 8 dereferenceable(24) %10, i8 0, i64 24, i1 false)
  store ptr %3, ptr %9, align 8, !tbaa !23
  %11 = getelementptr inbounds nuw i8, ptr %9, i64 16
  store i32 %4, ptr %11, align 8, !tbaa !25
  call fastcc void @_ZN12_GLOBAL__N_17toLowerEijPKhP12UCaseContextiiRN6icu_778ByteSinkEPNS4_5EditsER10UErrorCode(i32 noundef %0, i32 noundef %1, ptr noundef %3, ptr noundef nonnull %9, i32 noundef 0, i32 noundef %4, ptr noundef nonnull align 8 dereferenceable(8) %5, ptr noundef %6, ptr noundef nonnull align 4 dereferenceable(4) %7)
  call void @llvm.lifetime.end.p0(i64 32, ptr nonnull %9) #17
  ret void
}